; ModuleID = 'source-C-CXX/59/141.c'
source_filename = "source-C-CXX/59/141.c"
target datalayout = "e-m:e-p270:32:32-p271:32:32-p272:64:64-i64:64-f80:128-n8:16:32:64-S128"
target triple = "x86_64-pc-linux-gnu"

@.str = private unnamed_addr constant [3 x i8] c"%d\00", align 1
@.str.1 = private unnamed_addr constant [7 x i8] c"%d %d\0A\00", align 1
@.str.2 = private unnamed_addr constant [6 x i8] c"empty\00", align 1

; Function Attrs: nofree nounwind sspstrong uwtable
define dso_local void @main() local_unnamed_addr #0 {
  %1 = alloca i32, align 4
  %2 = bitcast i32* %1 to i8*
  call void @llvm.lifetime.start.p0i8(i64 4, i8* nonnull %2) #4
  %3 = call i32 (i8*, ...) @__isoc99_scanf(i8* getelementptr inbounds ([3 x i8], [3 x i8]* @.str, i64 0, i64 0), i32* nonnull %1)
  %4 = load i32, i32* %1, align 4, !tbaa !5
  %5 = icmp slt i32 %4, 1
  br i1 %5, label %38, label %6

6:                                                ; preds = %0, %28
  %7 = phi i32 [ %29, %28 ], [ %4, %0 ]
  %8 = phi i32 [ %35, %28 ], [ 0, %0 ]
  %9 = phi i32 [ %30, %28 ], [ 0, %0 ]
  %10 = phi i32 [ %32, %28 ], [ undef, %0 ]
  %11 = phi i32 [ %33, %28 ], [ 1, %0 ]
  %12 = call i32 @llvm.smax.i32(i32 %8, i32 2)
  %13 = add nuw nsw i32 %12, 1
  br label %14

14:                                               ; preds = %6, %18
  %15 = phi i32 [ %19, %18 ], [ 2, %6 ]
  %16 = urem i32 %11, %15
  %17 = icmp eq i32 %16, 0
  br i1 %17, label %21, label %18

18:                                               ; preds = %14
  %19 = add nuw nsw i32 %15, 1
  %20 = icmp eq i32 %15, %12
  br i1 %20, label %21, label %14, !llvm.loop !9

21:                                               ; preds = %14, %18
  %22 = phi i32 [ %13, %18 ], [ %15, %14 ]
  %23 = add nsw i32 %10, 2
  %24 = icmp eq i32 %22, %23
  br i1 %24, label %25, label %28

25:                                               ; preds = %21
  %26 = call i32 (i8*, ...) @printf(i8* nonnull dereferenceable(1) getelementptr inbounds ([7 x i8], [7 x i8]* @.str.1, i64 0, i64 0), i32 %10, i32 %11)
  %27 = load i32, i32* %1, align 4, !tbaa !5
  br label %28

28:                                               ; preds = %25, %21
  %29 = phi i32 [ %27, %25 ], [ %7, %21 ]
  %30 = phi i32 [ 1, %25 ], [ %9, %21 ]
  %31 = icmp eq i32 %22, %11
  %32 = select i1 %31, i32 %11, i32 %10
  %33 = add nuw nsw i32 %11, 1
  %34 = icmp slt i32 %11, %29
  %35 = add nuw nsw i32 %8, 1
  br i1 %34, label %6, label %36, !llvm.loop !11

36:                                               ; preds = %28
  %37 = icmp eq i32 %30, 0
  br i1 %37, label %38, label %40

38:                                               ; preds = %0, %36
  %39 = call i32 (i8*, ...) @printf(i8* nonnull dereferenceable(1) getelementptr inbounds ([6 x i8], [6 x i8]* @.str.2, i64 0, i64 0))
  br label %40

40:                                               ; preds = %38, %36
  call void @llvm.lifetime.end.p0i8(i64 4, i8* nonnull %2) #4
  ret void
}

; Function Attrs: argmemonly mustprogress nofree nosync nounwind willreturn
declare void @llvm.lifetime.start.p0i8(i64 immarg, i8* nocapture) #1

; Function Attrs: nofree nounwind
declare noundef i32 @__isoc99_scanf(i8* nocapture noundef readonly, ...) local_unnamed_addr #2

; Function Attrs: nofree nounwind
declare noundef i32 @printf(i8* nocapture noundef readonly, ...) local_unnamed_addr #2

; Function Attrs: argmemonly mustprogress nofree nosync nounwind willreturn
declare void @llvm.lifetime.end.p0i8(i64 immarg, i8* nocapture) #1

; Function Attrs: nofree nosync nounwind readnone speculatable willreturn
declare i32 @llvm.smax.i32(i32, i32) #3


!llvm.module.flags = !{!0, !1, !2, !3}
!llvm.ident = !{!4}

!0 = !{i32 1, !"wchar_size", i32 4}
!1 = !{i32 7, !"PIC Level", i32 2}
!2 = !{i32 7, !"PIE Level", i32 2}
!3 = !{i32 7, !"uwtable", i32 1}
!4 = !{!"clang version 13.0.0"}
!5 = !{!6, !6, i64 0}
!6 = !{!"int", !7, i64 0}
!7 = !{!"omnipotent char", !8, i64 0}
!8 = !{!"Simple C/C++ TBAA"}
!9 = distinct !{!9, !10}
!10 = !{!"llvm.loop.mustprogress"}
!11 = distinct !{!11, !10}
